; Function Attrs: mustprogress nofree norecurse nosync nounwind willreturn memory(argmem: read) uwtable
define hidden noundef zeroext i1 @_ZNK19OpenColorIO_v2_4dev11RangeOpData11isClampNegsEv(ptr nocapture noundef nonnull readonly align 8 dereferenceable(228) %this) local_unnamed_addr #8 align 2 {
entry:
  %m_maxInValue.i = getelementptr inbounds i8, ptr %this, i64 176
  %0 = load double, ptr %m_maxInValue.i, align 8
  %conv.i = fptrunc double %0 to float
  %1 = fcmp uno float %conv.i, 0.000000e+00
  br i1 %1, label %land.lhs.true, label %land.end

land.lhs.true:                                    ; preds = %entry
  %m_minInValue.i = getelementptr inbounds i8, ptr %this, i64 168
  %2 = load double, ptr %m_minInValue.i, align 8
  %conv.i1 = fptrunc double %2 to float
  %3 = fcmp uno float %conv.i1, 0.000000e+00
  br i1 %3, label %land.end, label %land.rhs

land.rhs:                                         ; preds = %land.lhs.true
  %cmp = fcmp oeq double %2, 0.000000e+00
  br label %land.end

land.end:                                         ; preds = %land.rhs, %land.lhs.true, %entry
  %4 = phi i1 [ false, %land.lhs.true ], [ false, %entry ], [ %cmp, %land.rhs ]
  ret i1 %4
}